target datalayout = "e-m:e-p270:32:32-p271:32:32-p272:64:64-i64:64-i128:128-f80:128-n8:16:32:64-S128"
target triple = "x86_64-pc-linux-gnu"

%struct.DH_PKEY_CTX = type { i32, i32, i32, i32, i32, ptr, i32, [2 x i32], i8, ptr, ptr, ptr, i64, i64 }
%struct.evp_pkey_ctx_st = type { i32, ptr, ptr, ptr, ptr, %union.anon, %struct.anon.4, ptr, ptr, ptr, i32, i32, ptr, ptr, ptr, ptr, ptr, i8, ptr }
%union.anon = type { %struct.anon.0 }
%struct.anon.0 = type { ptr, ptr }
%struct.anon.4 = type { ptr, ptr, i64, i8 }
%struct.dh_st = type { i32, i32, %struct.ffc_params_st, i32, ptr, ptr, i32, ptr, %struct.CRYPTO_REF_COUNT, %struct.crypto_ex_data_st, ptr, ptr, ptr, ptr, i64 }
%struct.ffc_params_st = type { ptr, ptr, ptr, ptr, ptr, i64, i32, i32, i32, i32, i32, ptr, ptr, i32 }
%struct.CRYPTO_REF_COUNT = type { i32 }
%struct.crypto_ex_data_st = type { ptr, ptr }

; Function Attrs: nounwind uwtable
define internal ptr @ffc_params_generate(ptr noundef %0, ptr noundef %1, ptr noundef %2) #0 {
  %4 = alloca ptr, align 8
  %5 = alloca ptr, align 8
  %6 = alloca ptr, align 8
  %7 = alloca ptr, align 8
  %8 = alloca ptr, align 8
  %9 = alloca i32, align 4
  %10 = alloca i32, align 4
  %11 = alloca i32, align 4
  %12 = alloca i32, align 4
  %13 = alloca i32, align 4
  store ptr %0, ptr %5, align 8, !tbaa !67
  store ptr %1, ptr %6, align 8, !tbaa !8
  store ptr %2, ptr %7, align 8, !tbaa !43
  call void @llvm.lifetime.start.p0(i64 8, ptr %8) #6
  call void @llvm.lifetime.start.p0(i64 4, ptr %9) #6
  store i32 0, ptr %9, align 4, !tbaa !45
  call void @llvm.lifetime.start.p0(i64 4, ptr %10) #6
  call void @llvm.lifetime.start.p0(i64 4, ptr %11) #6
  %14 = load ptr, ptr %6, align 8, !tbaa !8
  %15 = getelementptr inbounds nuw %struct.DH_PKEY_CTX, ptr %14, i32 0, i32 0
  %16 = load i32, ptr %15, align 8, !tbaa !9
  store i32 %16, ptr %11, align 4, !tbaa !45
  call void @llvm.lifetime.start.p0(i64 4, ptr %12) #6
  %17 = load ptr, ptr %6, align 8, !tbaa !8
  %18 = getelementptr inbounds nuw %struct.DH_PKEY_CTX, ptr %17, i32 0, i32 3
  %19 = load i32, ptr %18, align 4, !tbaa !16
  store i32 %19, ptr %12, align 4, !tbaa !45
  %20 = load ptr, ptr %6, align 8, !tbaa !8
  %21 = getelementptr inbounds nuw %struct.DH_PKEY_CTX, ptr %20, i32 0, i32 2
  %22 = load i32, ptr %21, align 8, !tbaa !31
  %23 = icmp sgt i32 %22, 2
  br i1 %23, label %24, label %25

24:                                               ; preds = %3
  store ptr null, ptr %4, align 8
  store i32 1, ptr %13, align 4
  br label %89

25:                                               ; preds = %3
  %26 = call ptr @DH_new()
  store ptr %26, ptr %8, align 8, !tbaa !41
  %27 = load ptr, ptr %8, align 8, !tbaa !41
  %28 = icmp eq ptr %27, null
  br i1 %28, label %29, label %30

29:                                               ; preds = %25
  store ptr null, ptr %4, align 8
  store i32 1, ptr %13, align 4
  br label %89

30:                                               ; preds = %25
  %31 = load i32, ptr %12, align 4, !tbaa !45
  %32 = icmp eq i32 %31, -1
  br i1 %32, label %33, label %39

33:                                               ; preds = %30
  %34 = load i32, ptr %11, align 4, !tbaa !45
  %35 = icmp sge i32 %34, 2048
  br i1 %35, label %36, label %37

36:                                               ; preds = %33
  store i32 256, ptr %12, align 4, !tbaa !45
  br label %38

37:                                               ; preds = %33
  store i32 160, ptr %12, align 4, !tbaa !45
  br label %38

38:                                               ; preds = %37, %36
  br label %39

39:                                               ; preds = %38, %30
  %40 = load ptr, ptr %6, align 8, !tbaa !8
  %41 = getelementptr inbounds nuw %struct.DH_PKEY_CTX, ptr %40, i32 0, i32 5
  %42 = load ptr, ptr %41, align 8, !tbaa !33
  %43 = icmp ne ptr %42, null
  br i1 %43, label %44, label %51

44:                                               ; preds = %39
  %45 = load ptr, ptr %8, align 8, !tbaa !41
  %46 = getelementptr inbounds nuw %struct.dh_st, ptr %45, i32 0, i32 2
  %47 = load ptr, ptr %6, align 8, !tbaa !8
  %48 = getelementptr inbounds nuw %struct.DH_PKEY_CTX, ptr %47, i32 0, i32 5
  %49 = load ptr, ptr %48, align 8, !tbaa !33
  %50 = call ptr @EVP_MD_get0_name(ptr noundef %49)
  call void @ossl_ffc_set_digest(ptr noundef %46, ptr noundef %50, ptr noundef null)
  br label %51

51:                                               ; preds = %44, %39
  %52 = load ptr, ptr %6, align 8, !tbaa !8
  %53 = getelementptr inbounds nuw %struct.DH_PKEY_CTX, ptr %52, i32 0, i32 2
  %54 = load i32, ptr %53, align 8, !tbaa !31
  %55 = icmp eq i32 %54, 1
  br i1 %55, label %56, label %66

56:                                               ; preds = %51
  %57 = load ptr, ptr %5, align 8, !tbaa !67
  %58 = load ptr, ptr %8, align 8, !tbaa !41
  %59 = getelementptr inbounds nuw %struct.dh_st, ptr %58, i32 0, i32 2
  %60 = load i32, ptr %11, align 4, !tbaa !45
  %61 = sext i32 %60 to i64
  %62 = load i32, ptr %12, align 4, !tbaa !45
  %63 = sext i32 %62 to i64
  %64 = load ptr, ptr %7, align 8, !tbaa !43
  %65 = call i32 @ossl_ffc_params_FIPS186_2_generate(ptr noundef %57, ptr noundef %59, i32 noundef 1, i64 noundef %61, i64 noundef %63, ptr noundef %10, ptr noundef %64)
  store i32 %65, ptr %9, align 4, !tbaa !45
  br label %82

66:                                               ; preds = %51
  %67 = load ptr, ptr %6, align 8, !tbaa !8
  %68 = getelementptr inbounds nuw %struct.DH_PKEY_CTX, ptr %67, i32 0, i32 2
  %69 = load i32, ptr %68, align 8, !tbaa !31
  %70 = icmp sge i32 %69, 1
  br i1 %70, label %71, label %81

71:                                               ; preds = %66
  %72 = load ptr, ptr %5, align 8, !tbaa !67
  %73 = load ptr, ptr %8, align 8, !tbaa !41
  %74 = getelementptr inbounds nuw %struct.dh_st, ptr %73, i32 0, i32 2
  %75 = load i32, ptr %11, align 4, !tbaa !45
  %76 = sext i32 %75 to i64
  %77 = load i32, ptr %12, align 4, !tbaa !45
  %78 = sext i32 %77 to i64
  %79 = load ptr, ptr %7, align 8, !tbaa !43
  %80 = call i32 @ossl_ffc_params_FIPS186_4_generate(ptr noundef %72, ptr noundef %74, i32 noundef 1, i64 noundef %76, i64 noundef %78, ptr noundef %10, ptr noundef %79)
  store i32 %80, ptr %9, align 4, !tbaa !45
  br label %81

81:                                               ; preds = %71, %66
  br label %82

82:                                               ; preds = %81, %56
  %83 = load i32, ptr %9, align 4, !tbaa !45
  %84 = icmp sle i32 %83, 0
  br i1 %84, label %85, label %87

85:                                               ; preds = %82
  %86 = load ptr, ptr %8, align 8, !tbaa !41
  call void @DH_free(ptr noundef %86)
  store ptr null, ptr %4, align 8
  store i32 1, ptr %13, align 4
  br label %89

87:                                               ; preds = %82
  %88 = load ptr, ptr %8, align 8, !tbaa !41
  store ptr %88, ptr %4, align 8
  store i32 1, ptr %13, align 4
  br label %89

89:                                               ; preds = %87, %85, %29, %24
  call void @llvm.lifetime.end.p0(i64 4, ptr %12) #6
  call void @llvm.lifetime.end.p0(i64 4, ptr %11) #6
  call void @llvm.lifetime.end.p0(i64 4, ptr %10) #6
  call void @llvm.lifetime.end.p0(i64 4, ptr %9) #6
  call void @llvm.lifetime.end.p0(i64 8, ptr %8) #6
  %90 = load ptr, ptr %4, align 8
  ret ptr %90
}

; Function Attrs: nounwind uwtable
define internal i32 @pkey_dh_paramgen(ptr noundef %0, ptr noundef %1) #0 {
  %3 = alloca i32, align 4
  %4 = alloca ptr, align 8
  %5 = alloca ptr, align 8
  %6 = alloca ptr, align 8
  %7 = alloca ptr, align 8
  %8 = alloca ptr, align 8
  %9 = alloca i32, align 4
  %10 = alloca i32, align 4
  %11 = alloca i32, align 4
  store ptr %0, ptr %4, align 8, !tbaa !3
  store ptr %1, ptr %5, align 8, !tbaa !40
  call void @llvm.lifetime.start.p0(i64 8, ptr %6) #6
  store ptr null, ptr %6, align 8, !tbaa !41
  call void @llvm.lifetime.start.p0(i64 8, ptr %7) #6
  %12 = load ptr, ptr %4, align 8, !tbaa !3
  %13 = getelementptr inbounds nuw %struct.evp_pkey_ctx_st, ptr %12, i32 0, i32 16
  %14 = load ptr, ptr %13, align 8, !tbaa !19
  store ptr %14, ptr %7, align 8, !tbaa !8
  call void @llvm.lifetime.start.p0(i64 8, ptr %8) #6
  store ptr null, ptr %8, align 8, !tbaa !43
  call void @llvm.lifetime.start.p0(i64 4, ptr %9) #6
  %15 = load ptr, ptr %7, align 8, !tbaa !8
  %16 = getelementptr inbounds nuw %struct.DH_PKEY_CTX, ptr %15, i32 0, i32 6
  %17 = load i32, ptr %16, align 8, !tbaa !34
  %18 = icmp ne i32 %17, 0
  br i1 %18, label %19, label %37

19:                                               ; preds = %2
  call void @llvm.lifetime.start.p0(i64 4, ptr %10) #6
  %20 = load ptr, ptr %7, align 8, !tbaa !8
  %21 = getelementptr inbounds nuw %struct.DH_PKEY_CTX, ptr %20, i32 0, i32 6
  %22 = load i32, ptr %21, align 8, !tbaa !34
  %23 = icmp sle i32 %22, 3
  %24 = select i1 %23, i32 920, i32 28
  store i32 %24, ptr %10, align 4, !tbaa !45
  %25 = load ptr, ptr %7, align 8, !tbaa !8
  %26 = getelementptr inbounds nuw %struct.DH_PKEY_CTX, ptr %25, i32 0, i32 6
  %27 = load i32, ptr %26, align 8, !tbaa !34
  %28 = call ptr @DH_new_by_nid(i32 noundef %27)
  store ptr %28, ptr %6, align 8, !tbaa !41
  %29 = icmp eq ptr %28, null
  br i1 %29, label %30, label %31

30:                                               ; preds = %19
  store i32 0, ptr %3, align 4
  store i32 1, ptr %11, align 4
  br label %36

31:                                               ; preds = %19
  %32 = load ptr, ptr %5, align 8, !tbaa !40
  %33 = load i32, ptr %10, align 4, !tbaa !45
  %34 = load ptr, ptr %6, align 8, !tbaa !41
  %35 = call i32 @EVP_PKEY_assign(ptr noundef %32, i32 noundef %33, ptr noundef %34)
  store i32 1, ptr %3, align 4
  store i32 1, ptr %11, align 4
  br label %36

36:                                               ; preds = %31, %30
  call void @llvm.lifetime.end.p0(i64 4, ptr %10) #6
  br label %94

37:                                               ; preds = %2
  %38 = load ptr, ptr %4, align 8, !tbaa !3
  %39 = getelementptr inbounds nuw %struct.evp_pkey_ctx_st, ptr %38, i32 0, i32 8
  %40 = load ptr, ptr %39, align 8, !tbaa !46
  %41 = icmp ne ptr %40, null
  br i1 %41, label %42, label %50

42:                                               ; preds = %37
  %43 = call ptr @BN_GENCB_new()
  store ptr %43, ptr %8, align 8, !tbaa !43
  %44 = load ptr, ptr %8, align 8, !tbaa !43
  %45 = icmp eq ptr %44, null
  br i1 %45, label %46, label %47

46:                                               ; preds = %42
  store i32 0, ptr %3, align 4
  store i32 1, ptr %11, align 4
  br label %94

47:                                               ; preds = %42
  %48 = load ptr, ptr %8, align 8, !tbaa !43
  %49 = load ptr, ptr %4, align 8, !tbaa !3
  call void @evp_pkey_set_cb_translate(ptr noundef %48, ptr noundef %49)
  br label %50

50:                                               ; preds = %47, %37
  %51 = load ptr, ptr %7, align 8, !tbaa !8
  %52 = getelementptr inbounds nuw %struct.DH_PKEY_CTX, ptr %51, i32 0, i32 2
  %53 = load i32, ptr %52, align 8, !tbaa !31
  %54 = icmp sge i32 %53, 1
  br i1 %54, label %55, label %67

55:                                               ; preds = %50
  %56 = load ptr, ptr %7, align 8, !tbaa !8
  %57 = load ptr, ptr %8, align 8, !tbaa !43
  %58 = call ptr @ffc_params_generate(ptr noundef null, ptr noundef %56, ptr noundef %57)
  store ptr %58, ptr %6, align 8, !tbaa !41
  %59 = load ptr, ptr %8, align 8, !tbaa !43
  call void @BN_GENCB_free(ptr noundef %59)
  %60 = load ptr, ptr %6, align 8, !tbaa !41
  %61 = icmp eq ptr %60, null
  br i1 %61, label %62, label %63

62:                                               ; preds = %55
  store i32 0, ptr %3, align 4
  store i32 1, ptr %11, align 4
  br label %94

63:                                               ; preds = %55
  %64 = load ptr, ptr %5, align 8, !tbaa !40
  %65 = load ptr, ptr %6, align 8, !tbaa !41
  %66 = call i32 @EVP_PKEY_assign(ptr noundef %64, i32 noundef 920, ptr noundef %65)
  store i32 1, ptr %3, align 4
  store i32 1, ptr %11, align 4
  br label %94

67:                                               ; preds = %50
  %68 = call ptr @DH_new()
  store ptr %68, ptr %6, align 8, !tbaa !41
  %69 = load ptr, ptr %6, align 8, !tbaa !41
  %70 = icmp eq ptr %69, null
  br i1 %70, label %71, label %73

71:                                               ; preds = %67
  %72 = load ptr, ptr %8, align 8, !tbaa !43
  call void @BN_GENCB_free(ptr noundef %72)
  store i32 0, ptr %3, align 4
  store i32 1, ptr %11, align 4
  br label %94

73:                                               ; preds = %67
  %74 = load ptr, ptr %6, align 8, !tbaa !41
  %75 = load ptr, ptr %7, align 8, !tbaa !8
  %76 = getelementptr inbounds nuw %struct.DH_PKEY_CTX, ptr %75, i32 0, i32 0
  %77 = load i32, ptr %76, align 8, !tbaa !9
  %78 = load ptr, ptr %7, align 8, !tbaa !8
  %79 = getelementptr inbounds nuw %struct.DH_PKEY_CTX, ptr %78, i32 0, i32 1
  %80 = load i32, ptr %79, align 4, !tbaa !17
  %81 = load ptr, ptr %8, align 8, !tbaa !43
  %82 = call i32 @DH_generate_parameters_ex(ptr noundef %74, i32 noundef %77, i32 noundef %80, ptr noundef %81)
  store i32 %82, ptr %9, align 4, !tbaa !45
  %83 = load ptr, ptr %8, align 8, !tbaa !43
  call void @BN_GENCB_free(ptr noundef %83)
  %84 = load i32, ptr %9, align 4, !tbaa !45
  %85 = icmp ne i32 %84, 0
  br i1 %85, label %86, label %90

86:                                               ; preds = %73
  %87 = load ptr, ptr %5, align 8, !tbaa !40
  %88 = load ptr, ptr %6, align 8, !tbaa !41
  %89 = call i32 @EVP_PKEY_assign(ptr noundef %87, i32 noundef 28, ptr noundef %88)
  br label %92

90:                                               ; preds = %73
  %91 = load ptr, ptr %6, align 8, !tbaa !41
  call void @DH_free(ptr noundef %91)
  br label %92

92:                                               ; preds = %90, %86
  %93 = load i32, ptr %9, align 4, !tbaa !45
  store i32 %93, ptr %3, align 4
  store i32 1, ptr %11, align 4
  br label %94

94:                                               ; preds = %92, %71, %63, %62, %46, %36
  call void @llvm.lifetime.end.p0(i64 4, ptr %9) #6
  call void @llvm.lifetime.end.p0(i64 8, ptr %8) #6
  call void @llvm.lifetime.end.p0(i64 8, ptr %7) #6
  call void @llvm.lifetime.end.p0(i64 8, ptr %6) #6
  %95 = load i32, ptr %3, align 4
  ret i32 %95
}