; Function Attrs: nounwind uwtable
define internal i32 @pkey_dh_paramgen(ptr noundef %0, ptr noundef %1) #1 {
  %3 = alloca i32, align 4
  %4 = getelementptr inbounds nuw i8, ptr %0, i64 152
  %5 = load ptr, ptr %4, align 8, !tbaa !16
  %6 = getelementptr inbounds nuw i8, ptr %5, i64 32
  %7 = load i32, ptr %6, align 8, !tbaa !31
  %.not = icmp eq i32 %7, 0
  br i1 %.not, label %15, label %8

8:                                                ; preds = %2
  %9 = tail call ptr @DH_new_by_nid(i32 noundef %7) #6
  %10 = icmp eq ptr %9, null
  br i1 %10, label %73, label %11

11:                                               ; preds = %8
  %12 = icmp slt i32 %7, 4
  %13 = select i1 %12, i32 920, i32 28
  %14 = tail call i32 @EVP_PKEY_assign(ptr noundef %1, i32 noundef %13, ptr noundef nonnull %9) #6
  br label %73

15:                                               ; preds = %2
  %16 = getelementptr inbounds nuw i8, ptr %0, i64 96
  %17 = load ptr, ptr %16, align 8, !tbaa !37
  %.not36 = icmp eq ptr %17, null
  br i1 %.not36, label %22, label %18

18:                                               ; preds = %15
  %19 = tail call ptr @BN_GENCB_new() #6
  %20 = icmp eq ptr %19, null
  br i1 %20, label %73, label %21

21:                                               ; preds = %18
  tail call void @evp_pkey_set_cb_translate(ptr noundef nonnull %19, ptr noundef nonnull %0) #6
  br label %22

22:                                               ; preds = %21, %15
  %.030 = phi ptr [ %19, %21 ], [ null, %15 ]
  %23 = getelementptr inbounds nuw i8, ptr %5, i64 8
  %24 = load i32, ptr %23, align 8, !tbaa !28
  %25 = icmp sgt i32 %24, 0
  br i1 %25, label %26, label %61

26:                                               ; preds = %22
  call void @llvm.lifetime.start.p0(i64 4, ptr nonnull %3) #6
  %27 = load i32, ptr %5, align 8, !tbaa !3
  %28 = getelementptr inbounds nuw i8, ptr %5, i64 12
  %29 = load i32, ptr %28, align 4, !tbaa !13
  %30 = icmp samesign ugt i32 %24, 2
  br i1 %30, label %ffc_params_generate.exit.thread, label %31

31:                                               ; preds = %26
  %32 = tail call ptr @DH_new() #6
  %33 = icmp eq ptr %32, null
  br i1 %33, label %ffc_params_generate.exit.thread, label %34

34:                                               ; preds = %31
  %35 = icmp eq i32 %29, -1
  %36 = icmp sgt i32 %27, 2047
  %..i = select i1 %36, i32 256, i32 160
  %.0.i = select i1 %35, i32 %..i, i32 %29
  %37 = getelementptr inbounds nuw i8, ptr %5, i64 24
  %38 = load ptr, ptr %37, align 8, !tbaa !30
  %.not.i = icmp eq ptr %38, null
  br i1 %.not.i, label %42, label %39

39:                                               ; preds = %34
  %40 = getelementptr inbounds nuw i8, ptr %32, i64 8
  %41 = tail call ptr @EVP_MD_get0_name(ptr noundef nonnull %38) #6
  tail call void @ossl_ffc_set_digest(ptr noundef nonnull %40, ptr noundef %41, ptr noundef null) #6
  br label %42

42:                                               ; preds = %39, %34
  %43 = load i32, ptr %23, align 8, !tbaa !28
  %44 = icmp eq i32 %43, 1
  br i1 %44, label %45, label %50

45:                                               ; preds = %42
  %46 = getelementptr inbounds nuw i8, ptr %32, i64 8
  %47 = sext i32 %27 to i64
  %48 = sext i32 %.0.i to i64
  %49 = call i32 @ossl_ffc_params_FIPS186_2_generate(ptr noundef null, ptr noundef nonnull %46, i32 noundef 1, i64 noundef %47, i64 noundef %48, ptr noundef nonnull %3, ptr noundef %.030) #6
  br label %57

50:                                               ; preds = %42
  %51 = icmp sgt i32 %43, 0
  br i1 %51, label %52, label %.thread.i

52:                                               ; preds = %50
  %53 = getelementptr inbounds nuw i8, ptr %32, i64 8
  %54 = sext i32 %27 to i64
  %55 = sext i32 %.0.i to i64
  %56 = call i32 @ossl_ffc_params_FIPS186_4_generate(ptr noundef null, ptr noundef nonnull %53, i32 noundef 1, i64 noundef %54, i64 noundef %55, ptr noundef nonnull %3, ptr noundef %.030) #6
  br label %57

57:                                               ; preds = %52, %45
  %.025.i = phi i32 [ %49, %45 ], [ %56, %52 ]
  %58 = icmp slt i32 %.025.i, 1
  br i1 %58, label %.thread.i, label %59

.thread.i:                                        ; preds = %57, %50
  call void @DH_free(ptr noundef nonnull %32) #6
  br label %ffc_params_generate.exit.thread

ffc_params_generate.exit.thread:                  ; preds = %.thread.i, %26, %31
  call void @llvm.lifetime.end.p0(i64 4, ptr nonnull %3) #6
  call void @BN_GENCB_free(ptr noundef %.030) #6
  br label %73

59:                                               ; preds = %57
  call void @llvm.lifetime.end.p0(i64 4, ptr nonnull %3) #6
  call void @BN_GENCB_free(ptr noundef %.030) #6
  %60 = call i32 @EVP_PKEY_assign(ptr noundef %1, i32 noundef 920, ptr noundef nonnull %32) #6
  br label %73

61:                                               ; preds = %22
  %62 = tail call ptr @DH_new() #6
  %63 = icmp eq ptr %62, null
  br i1 %63, label %64, label %65

64:                                               ; preds = %61
  tail call void @BN_GENCB_free(ptr noundef %.030) #6
  br label %73

65:                                               ; preds = %61
  %66 = load i32, ptr %5, align 8, !tbaa !3
  %67 = getelementptr inbounds nuw i8, ptr %5, i64 4
  %68 = load i32, ptr %67, align 4, !tbaa !14
  %69 = tail call i32 @DH_generate_parameters_ex(ptr noundef nonnull %62, i32 noundef %66, i32 noundef %68, ptr noundef %.030) #6
  tail call void @BN_GENCB_free(ptr noundef %.030) #6
  %.not37 = icmp eq i32 %69, 0
  br i1 %.not37, label %72, label %70

70:                                               ; preds = %65
  %71 = tail call i32 @EVP_PKEY_assign(ptr noundef %1, i32 noundef 28, ptr noundef nonnull %62) #6
  br label %73

72:                                               ; preds = %65
  tail call void @DH_free(ptr noundef nonnull %62) #6
  br label %73

73:                                               ; preds = %ffc_params_generate.exit.thread, %70, %72, %18, %11, %8, %64, %59
  %.1 = phi i32 [ 1, %59 ], [ 0, %64 ], [ 1, %11 ], [ 0, %8 ], [ 0, %18 ], [ 0, %72 ], [ %69, %70 ], [ 0, %ffc_params_generate.exit.thread ]
  ret i32 %.1
}